target datalayout = "e-m:e-p270:32:32-p271:32:32-p272:64:64-i64:64-i128:128-f80:128-n8:16:32:64-S128"
target triple = "x86_64-pc-linux-gnu"

%class.MemRegion = type { ptr, i64 }
%class.AbsSeq = type { ptr, i32, double, double, double, double, double }
%class.G1Policy = type { ptr, %class.G1Predictions, ptr, %class.G1RemSetTrackingPolicy, ptr, %class.G1OldGenAllocationTracker, ptr, ptr, double, i32, i32, i32, ptr, ptr, double, i32, %class.G1YoungGenSizer, i32, i64, i64, %class.G1ConcurrentStartToMixedTimeTracker, ptr, ptr, ptr, ptr, double, double, i32, i32, %class.AgeTable }
%class.G1Predictions = type { double }
%class.G1RemSetTrackingPolicy = type { i8 }
%class.G1OldGenAllocationTracker = type { i64, i64, i64, i64, i64 }
%class.G1YoungGenSizer = type { ptr, i32, i8, i32, i32 }
%class.G1ConcurrentStartToMixedTimeTracker = type { i8, double, double, double }
%class.AgeTable = type { [16 x i64], i8, [16 x ptr] }
%class.CollectedHeap = type { ptr, ptr, i64, i64, %class.SoftRefPolicy, %class.MemRegion, i8, i64, i32, i32, i32, i32, ptr, ptr }
%class.SoftRefPolicy = type { i8, i8 }
%class.G1Analytics = type { ptr, %class.TruncatedSeq, %class.TruncatedSeq, %class.TruncatedSeq, %class.TruncatedSeq, double, %class.TruncatedSeq, %class.TruncatedSeq, %class.TruncatedSeq, %class.G1PhaseDependentSeq, %class.G1PhaseDependentSeq, %class.G1PhaseDependentSeq, %class.G1PhaseDependentSeq, %class.G1PhaseDependentSeq, %class.G1PhaseDependentSeq, %class.G1PhaseDependentSeq, %class.G1PhaseDependentSeq, %class.TruncatedSeq, %class.TruncatedSeq, %class.TruncatedSeq, %class.TruncatedSeq, %class.TruncatedSeq, double, double }
%class.G1PhaseDependentSeq = type { %class.TruncatedSeq, %class.TruncatedSeq }
%class.TruncatedSeq = type { %class.AbsSeq, ptr, i32, i32 }

@g_assert_poison = external global ptr, align 8
@.str.14 = private unnamed_addr constant [37 x i8] c"src/hotspot/share/gc/g1/g1Policy.cpp\00", align 1

; Function Attrs: mustprogress nounwind uwtable
define linkonce_odr hidden void @_ZN35G1ConcurrentStartToMixedTimeTracker5resetEv(ptr noundef nonnull align 8 dereferenceable(32) %0) #1 comdat align 2 {
  %2 = alloca ptr, align 8
  store ptr %0, ptr %2, align 8
  %3 = load ptr, ptr %2, align 8
  %4 = getelementptr inbounds %class.G1ConcurrentStartToMixedTimeTracker, ptr %3, i32 0, i32 0
  store i8 0, ptr %4, align 8
  %5 = getelementptr inbounds %class.G1ConcurrentStartToMixedTimeTracker, ptr %3, i32 0, i32 3
  store double 0.000000e+00, ptr %5, align 8
  %6 = getelementptr inbounds %class.G1ConcurrentStartToMixedTimeTracker, ptr %3, i32 0, i32 1
  store double -1.000000e+00, ptr %6, align 8
  %7 = getelementptr inbounds %class.G1ConcurrentStartToMixedTimeTracker, ptr %3, i32 0, i32 2
  store double -1.000000e+00, ptr %7, align 8
  ret void
}

; Function Attrs: mustprogress nounwind uwtable
define linkonce_odr hidden void @_ZN35G1ConcurrentStartToMixedTimeTracker21record_mixed_gc_startEd(ptr noundef nonnull align 8 dereferenceable(32) %0, double noundef %1) #1 comdat align 2 {
  %3 = alloca ptr, align 8
  %4 = alloca double, align 8
  store ptr %0, ptr %3, align 8
  store double %1, ptr %4, align 8
  %5 = load ptr, ptr %3, align 8
  %6 = getelementptr inbounds %class.G1ConcurrentStartToMixedTimeTracker, ptr %5, i32 0, i32 0
  %7 = load i8, ptr %6, align 8
  %8 = trunc i8 %7 to i1
  br i1 %8, label %9, label %13

9:                                                ; preds = %2
  %10 = load double, ptr %4, align 8
  %11 = getelementptr inbounds %class.G1ConcurrentStartToMixedTimeTracker, ptr %5, i32 0, i32 2
  store double %10, ptr %11, align 8
  %12 = getelementptr inbounds %class.G1ConcurrentStartToMixedTimeTracker, ptr %5, i32 0, i32 0
  store i8 0, ptr %12, align 8
  br label %13

13:                                               ; preds = %9, %2
  ret void
}

; Function Attrs: mustprogress nounwind uwtable
define linkonce_odr hidden void @_ZN35G1ConcurrentStartToMixedTimeTracker27record_concurrent_start_endEd(ptr noundef nonnull align 8 dereferenceable(32) %0, double noundef %1) #1 comdat align 2 {
  %3 = alloca ptr, align 8
  %4 = alloca double, align 8
  store ptr %0, ptr %3, align 8
  store double %1, ptr %4, align 8
  %5 = load ptr, ptr %3, align 8
  %6 = load double, ptr %4, align 8
  %7 = getelementptr inbounds %class.G1ConcurrentStartToMixedTimeTracker, ptr %5, i32 0, i32 1
  store double %6, ptr %7, align 8
  %8 = getelementptr inbounds %class.G1ConcurrentStartToMixedTimeTracker, ptr %5, i32 0, i32 0
  store i8 1, ptr %8, align 8
  ret void
}

; Function Attrs: mustprogress nounwind uwtable
define linkonce_odr hidden noundef i32 @_ZN13CollectedHeap8gc_causeEv(ptr noundef nonnull align 8 dereferenceable(104) %0) #1 comdat align 2 {
  %2 = alloca ptr, align 8
  store ptr %0, ptr %2, align 8
  %3 = load ptr, ptr %2, align 8
  %4 = getelementptr inbounds %class.CollectedHeap, ptr %3, i32 0, i32 10
  %5 = load i32, ptr %4, align 8
  ret i32 %5
}

; Function Attrs: mustprogress nounwind uwtable
define linkonce_odr hidden void @_ZN35G1ConcurrentStartToMixedTimeTracker9add_pauseEd(ptr noundef nonnull align 8 dereferenceable(32) %0, double noundef %1) #1 comdat align 2 {
  %3 = alloca ptr, align 8
  %4 = alloca double, align 8
  store ptr %0, ptr %3, align 8
  store double %1, ptr %4, align 8
  %5 = load ptr, ptr %3, align 8
  %6 = getelementptr inbounds %class.G1ConcurrentStartToMixedTimeTracker, ptr %5, i32 0, i32 0
  %7 = load i8, ptr %6, align 8
  %8 = trunc i8 %7 to i1
  br i1 %8, label %9, label %14

9:                                                ; preds = %2
  %10 = load double, ptr %4, align 8
  %11 = getelementptr inbounds %class.G1ConcurrentStartToMixedTimeTracker, ptr %5, i32 0, i32 3
  %12 = load double, ptr %11, align 8
  %13 = fadd double %12, %10
  store double %13, ptr %11, align 8
  br label %14

14:                                               ; preds = %9, %2
  ret void
}

; Function Attrs: mustprogress nounwind uwtable
define hidden void @_ZN8G1Policy28abort_time_to_mixed_trackingEv(ptr noundef nonnull align 8 dereferenceable(552) %0) #1 align 2 {
  %2 = alloca ptr, align 8
  store ptr %0, ptr %2, align 8
  %3 = load ptr, ptr %2, align 8
  %4 = getelementptr inbounds %class.G1Policy, ptr %3, i32 0, i32 20
  call void @_ZN35G1ConcurrentStartToMixedTimeTracker5resetEv(ptr noundef nonnull align 8 dereferenceable(32) %4)
  ret void
}

; Function Attrs: mustprogress nounwind uwtable
define linkonce_odr hidden void @_ZN11G1Analytics32set_prev_collection_pause_end_msEd(ptr noundef nonnull align 8 dereferenceable(2048) %0, double noundef %1) #1 comdat align 2 {
  %3 = alloca ptr, align 8
  %4 = alloca double, align 8
  store ptr %0, ptr %3, align 8
  store double %1, ptr %4, align 8
  %5 = load ptr, ptr %3, align 8
  %6 = load double, ptr %4, align 8
  %7 = getelementptr inbounds %class.G1Analytics, ptr %5, i32 0, i32 5
  store double %6, ptr %7, align 8
  ret void
}

; Function Attrs: mustprogress nounwind uwtable
define linkonce_odr hidden void @_ZN11G1Analytics35append_prev_collection_pause_end_msEd(ptr noundef nonnull align 8 dereferenceable(2048) %0, double noundef %1) #1 comdat align 2 {
  %3 = alloca ptr, align 8
  %4 = alloca double, align 8
  store ptr %0, ptr %3, align 8
  store double %1, ptr %4, align 8
  %5 = load ptr, ptr %3, align 8
  %6 = load double, ptr %4, align 8
  %7 = getelementptr inbounds %class.G1Analytics, ptr %5, i32 0, i32 5
  %8 = load double, ptr %7, align 8
  %9 = fadd double %8, %6
  store double %9, ptr %7, align 8
  ret void
}

; Function Attrs: mustprogress nounwind uwtable
define hidden void @_ZN8G1Policy29update_time_to_mixed_trackingE13G1GCPauseTypedd(ptr noundef nonnull align 8 dereferenceable(552) %0, i32 noundef %1, double noundef %2, double noundef %3) #1 align 2 {
  %5 = alloca ptr, align 8
  %6 = alloca i32, align 4
  %7 = alloca double, align 8
  %8 = alloca double, align 8
  store ptr %0, ptr %5, align 8
  store i32 %1, ptr %6, align 4
  store double %2, ptr %7, align 8
  store double %3, ptr %8, align 8
  %9 = load ptr, ptr %5, align 8
  %10 = load i32, ptr %6, align 4
  switch i32 %10, label %30 [
    i32 7, label %11
    i32 4, label %12
    i32 5, label %12
    i32 0, label %12
    i32 1, label %12
    i32 2, label %17
    i32 3, label %26
    i32 6, label %27
  ]

11:                                               ; preds = %4
  call void @_ZN8G1Policy28abort_time_to_mixed_trackingEv(ptr noundef nonnull align 8 dereferenceable(552) %9)
  br label %34

12:                                               ; preds = %4, %4, %4, %4
  %13 = getelementptr inbounds %class.G1Policy, ptr %9, i32 0, i32 20
  %14 = load double, ptr %8, align 8
  %15 = load double, ptr %7, align 8
  %16 = fsub double %14, %15
  call void @_ZN35G1ConcurrentStartToMixedTimeTracker9add_pauseEd(ptr noundef nonnull align 8 dereferenceable(32) %13, double noundef %16)
  br label %34

17:                                               ; preds = %4
  %18 = getelementptr inbounds %class.G1Policy, ptr %9, i32 0, i32 22
  %19 = load ptr, ptr %18, align 8
  %20 = call noundef i32 @_ZN13CollectedHeap8gc_causeEv(ptr noundef nonnull align 8 dereferenceable(104) %19)
  %21 = icmp ne i32 %20, 22
  br i1 %21, label %22, label %25

22:                                               ; preds = %17
  %23 = getelementptr inbounds %class.G1Policy, ptr %9, i32 0, i32 20
  %24 = load double, ptr %8, align 8
  call void @_ZN35G1ConcurrentStartToMixedTimeTracker27record_concurrent_start_endEd(ptr noundef nonnull align 8 dereferenceable(32) %23, double noundef %24)
  br label %25

25:                                               ; preds = %22, %17
  br label %34

26:                                               ; preds = %4
  br label %34

27:                                               ; preds = %4
  %28 = getelementptr inbounds %class.G1Policy, ptr %9, i32 0, i32 20
  %29 = load double, ptr %7, align 8
  call void @_ZN35G1ConcurrentStartToMixedTimeTracker21record_mixed_gc_startEd(ptr noundef nonnull align 8 dereferenceable(32) %28, double noundef %29)
  br label %34

30:                                               ; preds = %4
  br label %31

31:                                               ; preds = %30
  %32 = load ptr, ptr @g_assert_poison, align 8
  store i8 88, ptr %32, align 1
  call void @_Z28report_should_not_reach_herePKci(ptr noundef @.str.14, i32 noundef 1417) #11
  unreachable

33:                                               ; No predecessors!
  br label %34

34:                                               ; preds = %33, %27, %26, %25, %12, %11
  ret void
}

; Function Attrs: mustprogress nounwind uwtable
define hidden void @_ZN8G1Policy27update_gc_pause_time_ratiosE13G1GCPauseTypedd(ptr noundef nonnull align 8 dereferenceable(552) %0, i32 noundef %1, double noundef %2, double noundef %3) #1 align 2 {
  %5 = alloca ptr, align 8
  %6 = alloca i32, align 4
  %7 = alloca double, align 8
  %8 = alloca double, align 8
  %9 = alloca double, align 8
  %10 = alloca double, align 8
  store ptr %0, ptr %5, align 8
  store i32 %1, ptr %6, align 4
  store double %2, ptr %7, align 8
  store double %3, ptr %8, align 8
  %11 = load ptr, ptr %5, align 8
  %12 = load double, ptr %8, align 8
  %13 = load double, ptr %7, align 8
  %14 = fsub double %12, %13
  store double %14, ptr %9, align 8
  %15 = load double, ptr %9, align 8
  %16 = fmul double %15, 1.000000e+03
  store double %16, ptr %10, align 8
  %17 = getelementptr inbounds %class.G1Policy, ptr %11, i32 0, i32 2
  %18 = load ptr, ptr %17, align 8
  %19 = load double, ptr %8, align 8
  %20 = load double, ptr %10, align 8
  call void @_ZN11G1Analytics25compute_pause_time_ratiosEdd(ptr noundef nonnull align 8 dereferenceable(2048) %18, double noundef %19, double noundef %20)
  %21 = getelementptr inbounds %class.G1Policy, ptr %11, i32 0, i32 2
  %22 = load ptr, ptr %21, align 8
  %23 = load double, ptr %8, align 8
  %24 = load double, ptr %10, align 8
  call void @_ZN11G1Analytics22update_recent_gc_timesEdd(ptr noundef nonnull align 8 dereferenceable(2048) %22, double noundef %23, double noundef %24)
  %25 = load i32, ptr %6, align 4
  %26 = icmp eq i32 %25, 4
  br i1 %26, label %30, label %27

27:                                               ; preds = %4
  %28 = load i32, ptr %6, align 4
  %29 = icmp eq i32 %28, 5
  br i1 %29, label %30, label %34

30:                                               ; preds = %27, %4
  %31 = getelementptr inbounds %class.G1Policy, ptr %11, i32 0, i32 2
  %32 = load ptr, ptr %31, align 8
  %33 = load double, ptr %10, align 8
  call void @_ZN11G1Analytics35append_prev_collection_pause_end_msEd(ptr noundef nonnull align 8 dereferenceable(2048) %32, double noundef %33)
  br label %39

34:                                               ; preds = %27
  %35 = getelementptr inbounds %class.G1Policy, ptr %11, i32 0, i32 2
  %36 = load ptr, ptr %35, align 8
  %37 = load double, ptr %8, align 8
  %38 = fmul double %37, 1.000000e+03
  call void @_ZN11G1Analytics32set_prev_collection_pause_end_msEd(ptr noundef nonnull align 8 dereferenceable(2048) %36, double noundef %38)
  br label %39

39:                                               ; preds = %34, %30
  ret void
}

; Function Attrs: mustprogress nounwind uwtable
define hidden void @_ZN8G1Policy12record_pauseE13G1GCPauseTypeddb(ptr noundef nonnull align 8 dereferenceable(552) %0, i32 noundef %1, double noundef %2, double noundef %3, i1 noundef zeroext %4) #1 align 2 {
  %6 = alloca ptr, align 8
  %7 = alloca i32, align 4
  %8 = alloca double, align 8
  %9 = alloca double, align 8
  %10 = alloca i8, align 1
  store ptr %0, ptr %6, align 8
  store i32 %1, ptr %7, align 4
  store double %2, ptr %8, align 8
  store double %3, ptr %9, align 8
  %11 = zext i1 %4 to i8
  store i8 %11, ptr %10, align 1
  %12 = load ptr, ptr %6, align 8
  %13 = load i32, ptr %7, align 4
  %14 = icmp ne i32 %13, 7
  br i1 %14, label %15, label %20

15:                                               ; preds = %5
  %16 = getelementptr inbounds %class.G1Policy, ptr %12, i32 0, i32 4
  %17 = load ptr, ptr %16, align 8
  %18 = load double, ptr %8, align 8
  %19 = load double, ptr %9, align 8
  call void @_ZN12G1MMUTracker9add_pauseEdd(ptr noundef nonnull align 8 dereferenceable(1052) %17, double noundef %18, double noundef %19)
  br label %20

20:                                               ; preds = %15, %5
  %21 = load i8, ptr %10, align 1
  %22 = trunc i8 %21 to i1
  br i1 %22, label %27, label %23

23:                                               ; preds = %20
  %24 = load i32, ptr %7, align 4
  %25 = load double, ptr %8, align 8
  %26 = load double, ptr %9, align 8
  call void @_ZN8G1Policy27update_gc_pause_time_ratiosE13G1GCPauseTypedd(ptr noundef nonnull align 8 dereferenceable(552) %12, i32 noundef %24, double noundef %25, double noundef %26)
  br label %27

27:                                               ; preds = %23, %20
  %28 = load i32, ptr %7, align 4
  %29 = load double, ptr %8, align 8
  %30 = load double, ptr %9, align 8
  call void @_ZN8G1Policy29update_time_to_mixed_trackingE13G1GCPauseTypedd(ptr noundef nonnull align 8 dereferenceable(552) %12, i32 noundef %28, double noundef %29, double noundef %30)
  ret void
}