; Function Attrs: mustprogress nounwind uwtable
define hidden void @_ZN8G1Policy12record_pauseE13G1GCPauseTypeddb(ptr nocapture noundef nonnull align 8 dereferenceable(552) %0, i32 noundef %1, double noundef %2, double noundef %3, i1 noundef zeroext %4) local_unnamed_addr #1 align 2 {
  %.not = icmp eq i32 %1, 7
  br i1 %.not, label %9, label %6

6:                                                ; preds = %5
  %7 = getelementptr inbounds i8, ptr %0, i64 32
  %8 = load ptr, ptr %7, align 8
  tail call void @_ZN12G1MMUTracker9add_pauseEdd(ptr noundef nonnull align 8 dereferenceable(1052) %8, double noundef %2, double noundef %3) #18
  br label %9

9:                                                ; preds = %6, %5
  br i1 %4, label %_ZN8G1Policy27update_gc_pause_time_ratiosE13G1GCPauseTypedd.exit, label %10

10:                                               ; preds = %9
  %11 = fsub double %3, %2
  %12 = fmul double %11, 1.000000e+03
  %13 = getelementptr inbounds i8, ptr %0, i64 16
  %14 = load ptr, ptr %13, align 8
  tail call void @_ZN11G1Analytics25compute_pause_time_ratiosEdd(ptr noundef nonnull align 8 dereferenceable(2048) %14, double noundef %3, double noundef %12) #18
  %15 = load ptr, ptr %13, align 8
  tail call void @_ZN11G1Analytics22update_recent_gc_timesEdd(ptr noundef nonnull align 8 dereferenceable(2048) %15, double noundef %3, double noundef %12) #18
  %16 = and i32 %1, -2
  %or.cond.i = icmp eq i32 %16, 4
  %17 = load ptr, ptr %13, align 8
  br i1 %or.cond.i, label %18, label %22

18:                                               ; preds = %10
  %19 = getelementptr inbounds i8, ptr %17, i64 296
  %20 = load double, ptr %19, align 8
  %21 = fadd double %12, %20
  store double %21, ptr %19, align 8
  br label %_ZN8G1Policy27update_gc_pause_time_ratiosE13G1GCPauseTypedd.exit

22:                                               ; preds = %10
  %23 = fmul double %3, 1.000000e+03
  %24 = getelementptr inbounds i8, ptr %17, i64 296
  store double %23, ptr %24, align 8
  br label %_ZN8G1Policy27update_gc_pause_time_ratiosE13G1GCPauseTypedd.exit

_ZN8G1Policy27update_gc_pause_time_ratiosE13G1GCPauseTypedd.exit: ; preds = %22, %18, %9
  switch i32 %1, label %52 [
    i32 7, label %25
    i32 4, label %29
    i32 5, label %29
    i32 0, label %29
    i32 1, label %29
    i32 2, label %38
    i32 3, label %_ZN8G1Policy29update_time_to_mixed_trackingE13G1GCPauseTypedd.exit
    i32 6, label %46
  ]

25:                                               ; preds = %_ZN8G1Policy27update_gc_pause_time_ratiosE13G1GCPauseTypedd.exit
  %26 = getelementptr inbounds i8, ptr %0, i64 200
  store i8 0, ptr %26, align 8
  %27 = getelementptr inbounds i8, ptr %0, i64 224
  store double 0.000000e+00, ptr %27, align 8
  %28 = getelementptr inbounds i8, ptr %0, i64 208
  store <2 x double> <double -1.000000e+00, double -1.000000e+00>, ptr %28, align 8
  br label %_ZN8G1Policy29update_time_to_mixed_trackingE13G1GCPauseTypedd.exit

29:                                               ; preds = %_ZN8G1Policy27update_gc_pause_time_ratiosE13G1GCPauseTypedd.exit, %_ZN8G1Policy27update_gc_pause_time_ratiosE13G1GCPauseTypedd.exit, %_ZN8G1Policy27update_gc_pause_time_ratiosE13G1GCPauseTypedd.exit, %_ZN8G1Policy27update_gc_pause_time_ratiosE13G1GCPauseTypedd.exit
  %30 = getelementptr inbounds i8, ptr %0, i64 200
  %31 = load i8, ptr %30, align 8
  %32 = trunc i8 %31 to i1
  br i1 %32, label %33, label %_ZN8G1Policy29update_time_to_mixed_trackingE13G1GCPauseTypedd.exit

33:                                               ; preds = %29
  %34 = fsub double %3, %2
  %35 = getelementptr inbounds i8, ptr %0, i64 224
  %36 = load double, ptr %35, align 8
  %37 = fadd double %34, %36
  store double %37, ptr %35, align 8
  br label %_ZN8G1Policy29update_time_to_mixed_trackingE13G1GCPauseTypedd.exit

38:                                               ; preds = %_ZN8G1Policy27update_gc_pause_time_ratiosE13G1GCPauseTypedd.exit
  %39 = getelementptr inbounds i8, ptr %0, i64 240
  %40 = load ptr, ptr %39, align 8
  %41 = getelementptr inbounds i8, ptr %40, i64 80
  %42 = load i32, ptr %41, align 8
  %.not.i = icmp eq i32 %42, 22
  br i1 %.not.i, label %_ZN8G1Policy29update_time_to_mixed_trackingE13G1GCPauseTypedd.exit, label %43

43:                                               ; preds = %38
  %44 = getelementptr inbounds i8, ptr %0, i64 200
  %45 = getelementptr inbounds i8, ptr %0, i64 208
  store double %3, ptr %45, align 8
  store i8 1, ptr %44, align 8
  br label %_ZN8G1Policy29update_time_to_mixed_trackingE13G1GCPauseTypedd.exit

46:                                               ; preds = %_ZN8G1Policy27update_gc_pause_time_ratiosE13G1GCPauseTypedd.exit
  %47 = getelementptr inbounds i8, ptr %0, i64 200
  %48 = load i8, ptr %47, align 8
  %49 = trunc i8 %48 to i1
  br i1 %49, label %50, label %_ZN8G1Policy29update_time_to_mixed_trackingE13G1GCPauseTypedd.exit

50:                                               ; preds = %46
  %51 = getelementptr inbounds i8, ptr %0, i64 216
  store double %2, ptr %51, align 8
  store i8 0, ptr %47, align 8
  br label %_ZN8G1Policy29update_time_to_mixed_trackingE13G1GCPauseTypedd.exit

52:                                               ; preds = %_ZN8G1Policy27update_gc_pause_time_ratiosE13G1GCPauseTypedd.exit
  %53 = load ptr, ptr @g_assert_poison, align 8
  store i8 88, ptr %53, align 1
  tail call void @_Z28report_should_not_reach_herePKci(ptr noundef nonnull @.str.14, i32 noundef 1417) #19
  unreachable

_ZN8G1Policy29update_time_to_mixed_trackingE13G1GCPauseTypedd.exit: ; preds = %_ZN8G1Policy27update_gc_pause_time_ratiosE13G1GCPauseTypedd.exit, %25, %29, %33, %38, %43, %46, %50
  ret void
}